; Function Attrs: mustprogress uwtable
define noundef nonnull align 1 dereferenceable(1) ptr @_ZN8QuantLib5Money17BaseCurrencyProxyaSERKNS_8CurrencyE(ptr noundef nonnull readnone returned align 1 dereferenceable(1) %this, ptr nocapture noundef nonnull readonly align 8 dereferenceable(16) %c) local_unnamed_addr #0 align 2 personality ptr @__gxx_personality_v0 {
entry:
  %0 = load atomic i8, ptr @_ZGVZN8QuantLib9SingletonINS_5Money8SettingsESt17integral_constantIbLb0EEE8instanceEvE8instance acquire, align 8
  %guard.uninitialized.i = icmp eq i8 %0, 0
  br i1 %guard.uninitialized.i, label %init.check.i, label %_ZN8QuantLib9SingletonINS_5Money8SettingsESt17integral_constantIbLb0EEE8instanceEv.exit, !prof !3

init.check.i:                                     ; preds = %entry
  %1 = tail call i32 @__cxa_guard_acquire(ptr nonnull @_ZGVZN8QuantLib9SingletonINS_5Money8SettingsESt17integral_constantIbLb0EEE8instanceEvE8instance) #21
  %tobool.not.i = icmp eq i32 %1, 0
  br i1 %tobool.not.i, label %_ZN8QuantLib9SingletonINS_5Money8SettingsESt17integral_constantIbLb0EEE8instanceEv.exit, label %init.i

init.i:                                           ; preds = %init.check.i
  %2 = tail call i32 @__cxa_atexit(ptr nonnull @_ZN8QuantLib5Money8SettingsD2Ev, ptr nonnull @_ZZN8QuantLib9SingletonINS_5Money8SettingsESt17integral_constantIbLb0EEE8instanceEvE8instance, ptr nonnull @__dso_handle) #21
  tail call void @__cxa_guard_release(ptr nonnull @_ZGVZN8QuantLib9SingletonINS_5Money8SettingsESt17integral_constantIbLb0EEE8instanceEvE8instance) #21
  br label %_ZN8QuantLib9SingletonINS_5Money8SettingsESt17integral_constantIbLb0EEE8instanceEv.exit

_ZN8QuantLib9SingletonINS_5Money8SettingsESt17integral_constantIbLb0EEE8instanceEv.exit: ; preds = %entry, %init.check.i, %init.i
  %3 = load ptr, ptr %c, align 8, !tbaa !4
  %pn3.i.i.i = getelementptr inbounds nuw i8, ptr %c, i64 8
  %4 = load ptr, ptr %pn3.i.i.i, align 8, !tbaa !22
  %cmp.not.i.i.i.i = icmp eq ptr %4, null
  br i1 %cmp.not.i.i.i.i, label %_ZN5boost10shared_ptrIN8QuantLib8Currency4DataEEC2ERKS4_.exit.i.i, label %if.then.i.i.i.i

if.then.i.i.i.i:                                  ; preds = %_ZN8QuantLib9SingletonINS_5Money8SettingsESt17integral_constantIbLb0EEE8instanceEv.exit
  %use_count_.i.i.i.i.i = getelementptr inbounds nuw i8, ptr %4, i64 8
  %5 = atomicrmw add ptr %use_count_.i.i.i.i.i, i32 1 monotonic, align 4
  br label %_ZN5boost10shared_ptrIN8QuantLib8Currency4DataEEC2ERKS4_.exit.i.i

_ZN5boost10shared_ptrIN8QuantLib8Currency4DataEEC2ERKS4_.exit.i.i: ; preds = %if.then.i.i.i.i, %_ZN8QuantLib9SingletonINS_5Money8SettingsESt17integral_constantIbLb0EEE8instanceEv.exit
  store ptr %3, ptr getelementptr inbounds nuw (i8, ptr @_ZZN8QuantLib9SingletonINS_5Money8SettingsESt17integral_constantIbLb0EEE8instanceEvE8instance, i64 8), align 8, !tbaa !29
  %6 = load ptr, ptr getelementptr inbounds nuw (i8, ptr @_ZZN8QuantLib9SingletonINS_5Money8SettingsESt17integral_constantIbLb0EEE8instanceEvE8instance, i64 16), align 8, !tbaa !22
  store ptr %4, ptr getelementptr inbounds nuw (i8, ptr @_ZZN8QuantLib9SingletonINS_5Money8SettingsESt17integral_constantIbLb0EEE8instanceEvE8instance, i64 16), align 8, !tbaa !22
  %cmp.not.i.i4.i.i = icmp eq ptr %6, null
  br i1 %cmp.not.i.i4.i.i, label %_ZN8QuantLib8CurrencyaSERKS0_.exit, label %if.then.i.i5.i.i

if.then.i.i5.i.i:                                 ; preds = %_ZN5boost10shared_ptrIN8QuantLib8Currency4DataEEC2ERKS4_.exit.i.i
  %use_count_.i.i.i6.i.i = getelementptr inbounds nuw i8, ptr %6, i64 8
  %7 = atomicrmw sub ptr %use_count_.i.i.i6.i.i, i32 1 acq_rel, align 4
  %cmp.i.i.i.i.i = icmp eq i32 %7, 1
  br i1 %cmp.i.i.i.i.i, label %if.then.i.i.i.i.i, label %_ZN8QuantLib8CurrencyaSERKS0_.exit

if.then.i.i.i.i.i:                                ; preds = %if.then.i.i5.i.i
  %vtable.i.i.i.i.i = load ptr, ptr %6, align 8, !tbaa !23
  %vfn.i.i.i.i.i = getelementptr inbounds i8, ptr %vtable.i.i.i.i.i, i64 16
  %8 = load ptr, ptr %vfn.i.i.i.i.i, align 8
  invoke void %8(ptr noundef nonnull align 8 dereferenceable(16) %6)
          to label %.noexc.i.i.i.i unwind label %terminate.lpad.i.i.i.i

.noexc.i.i.i.i:                                   ; preds = %if.then.i.i.i.i.i
  %weak_count_.i.i.i.i.i.i = getelementptr inbounds nuw i8, ptr %6, i64 12
  %9 = atomicrmw sub ptr %weak_count_.i.i.i.i.i.i, i32 1 acq_rel, align 4
  %cmp.i.i.i.i.i.i = icmp eq i32 %9, 1
  br i1 %cmp.i.i.i.i.i.i, label %if.then.i.i.i.i.i.i, label %_ZN8QuantLib8CurrencyaSERKS0_.exit

if.then.i.i.i.i.i.i:                              ; preds = %.noexc.i.i.i.i
  %vtable.i.i.i.i.i.i = load ptr, ptr %6, align 8, !tbaa !23
  %vfn.i.i.i.i.i.i = getelementptr inbounds i8, ptr %vtable.i.i.i.i.i.i, i64 24
  %10 = load ptr, ptr %vfn.i.i.i.i.i.i, align 8
  invoke void %10(ptr noundef nonnull align 8 dereferenceable(16) %6)
          to label %_ZN8QuantLib8CurrencyaSERKS0_.exit unwind label %terminate.lpad.i.i.i.i

terminate.lpad.i.i.i.i:                           ; preds = %if.then.i.i.i.i.i.i, %if.then.i.i.i.i.i
  %11 = landingpad { ptr, i32 }
          catch ptr null
  %12 = extractvalue { ptr, i32 } %11, 0
  tail call void @__clang_call_terminate(ptr %12) #22
  unreachable

_ZN8QuantLib8CurrencyaSERKS0_.exit:               ; preds = %_ZN5boost10shared_ptrIN8QuantLib8Currency4DataEEC2ERKS4_.exit.i.i, %if.then.i.i5.i.i, %.noexc.i.i.i.i, %if.then.i.i.i.i.i.i
  ret ptr %this
}